; Function Attrs: mustprogress nounwind uwtable
define void @_ZN2cv2ml6KDTreeC2Ev(ptr noundef nonnull align 8 dereferenceable(152) initializes((0, 24)) %0) unnamed_addr #3 align 2 {
  tail call void @llvm.memset.p0.i64(ptr noundef nonnull align 8 dereferenceable(24) %0, i8 0, i64 24, i1 false)
  %2 = getelementptr inbounds nuw i8, ptr %0, i64 24
  tail call void @_ZN2cv3MatC1Ev(ptr noundef nonnull align 8 dereferenceable(96) %2) #15
  %3 = getelementptr inbounds nuw i8, ptr %0, i64 120
  tail call void @llvm.memset.p0.i64(ptr noundef nonnull align 8 dereferenceable(24) %3, i8 0, i64 24, i1 false)
  %4 = getelementptr inbounds nuw i8, ptr %0, i64 144
  store i32 -1, ptr %4, align 8, !tbaa !3
  %5 = getelementptr inbounds nuw i8, ptr %0, i64 148
  store i32 4, ptr %5, align 4, !tbaa !26
  ret void
}